	.file	"hw4.c"
	.text
.Ltext0:
	.globl	printnum
	.type	printnum, @function
printnum:
.LFB40:
	.file 1 "hw4.c"
	.loc 1 44 0
	.cfi_startproc
.LVL0:
	pushl	%esi
	.cfi_def_cfa_offset 8
	.cfi_offset 6, -8
	pushl	%ebx
	.cfi_def_cfa_offset 12
	.cfi_offset 3, -12
	subl	$36, %esp
	.cfi_def_cfa_offset 48
	movl	48(%esp), %edx
	.loc 1 44 0
	movl	%gs:20, %eax
	movl	%eax, 28(%esp)
	xorl	%eax, %eax
.LVL1:
	.loc 1 47 0
	testl	%edx, %edx
	je	.L1
	leal	20(%esp), %ecx
	.loc 1 46 0
	movl	$0, %esi
.LVL2:
.L20:
.LBB19:
	.loc 1 49 0
	movl	%edx, %eax
	andl	$15, %eax
.LVL3:
	.loc 1 50 0
	shrl	$4, %edx
.LVL4:
	movl	%edx, %ebx
.LVL5:
	.loc 1 51 0
	cmpl	$15, %eax
	jne	.L3
	.loc 1 53 0
	movb	$102, (%ecx)
	jmp	.L4
.L3:
	.loc 1 55 0
	cmpl	$14, %eax
	jne	.L5
	.loc 1 57 0
	movb	$101, (%ecx)
	.p2align 4,,2
	jmp	.L4
.L5:
	.loc 1 59 0
	cmpl	$13, %eax
	.p2align 4,,2
	jne	.L6
	.loc 1 61 0
	movb	$100, (%ecx)
	.p2align 4,,2
	jmp	.L4
.L6:
	.loc 1 63 0
	cmpl	$12, %eax
	.p2align 4,,2
	jne	.L7
	.loc 1 65 0
	movb	$99, (%ecx)
	.p2align 4,,2
	jmp	.L4
.L7:
	.loc 1 67 0
	cmpl	$11, %eax
	.p2align 4,,2
	jne	.L8
	.loc 1 69 0
	movb	$98, (%ecx)
	.p2align 4,,2
	jmp	.L4
.L8:
	.loc 1 71 0
	cmpl	$10, %eax
	.p2align 4,,2
	jne	.L9
	.loc 1 73 0
	movb	$97, (%ecx)
	.p2align 4,,2
	jmp	.L4
.L9:
	.loc 1 75 0
	cmpl	$9, %eax
	.p2align 4,,2
	jne	.L10
	.loc 1 77 0
	movb	$57, (%ecx)
	.p2align 4,,2
	jmp	.L4
.L10:
	.loc 1 79 0
	cmpl	$8, %eax
	.p2align 4,,2
	jne	.L11
	.loc 1 81 0
	movb	$56, (%ecx)
	.p2align 4,,2
	jmp	.L4
.L11:
	.loc 1 83 0
	cmpl	$7, %eax
	.p2align 4,,2
	jne	.L12
	.loc 1 85 0
	movb	$55, (%ecx)
	.p2align 4,,2
	jmp	.L4
.L12:
	.loc 1 87 0
	cmpl	$6, %eax
	.p2align 4,,2
	jne	.L13
	.loc 1 89 0
	movb	$54, (%ecx)
	.p2align 4,,2
	jmp	.L4
.L13:
	.loc 1 91 0
	cmpl	$5, %eax
	.p2align 4,,2
	jne	.L14
	.loc 1 93 0
	movb	$53, (%ecx)
	.p2align 4,,2
	jmp	.L4
.L14:
	.loc 1 95 0
	cmpl	$4, %eax
	.p2align 4,,2
	jne	.L15
	.loc 1 97 0
	movb	$52, (%ecx)
	.p2align 4,,2
	jmp	.L4
.L15:
	.loc 1 99 0
	cmpl	$3, %eax
	.p2align 4,,2
	jne	.L16
	.loc 1 101 0
	movb	$51, (%ecx)
	.p2align 4,,2
	jmp	.L4
.L16:
	.loc 1 103 0
	cmpl	$2, %eax
	.p2align 4,,2
	jne	.L17
	.loc 1 105 0
	movb	$50, (%ecx)
	.p2align 4,,2
	jmp	.L4
.L17:
	.loc 1 107 0
	cmpl	$1, %eax
	.p2align 4,,2
	jne	.L18
	.loc 1 109 0
	movb	$49, (%ecx)
	.p2align 4,,2
	jmp	.L4
.L18:
	.loc 1 111 0
	testl	%eax, %eax
	.p2align 4,,3
	jne	.L4
	.loc 1 113 0
	movb	$48, (%ecx)
.L4:
	.loc 1 115 0
	leal	1(%esi), %eax
.LVL6:
	addl	$1, %ecx
.LBE19:
	.loc 1 47 0
	testl	%ebx, %ebx
	je	.L19
.LBB20:
	.loc 1 115 0
	movl	%eax, %esi
	jmp	.L20
.L19:
.LVL7:
.LBE20:
	.loc 1 118 0
	testl	%esi, %esi
	js	.L1
	leal	20(%esp,%esi), %ebx
	leal	19(%esp), %esi
.LVL8:
.L21:
.LBB21:
.LBB22:
	.file 2 "/usr/include/bits/stdio.h"
	.loc 2 81 0
	movl	stdout, %eax
	movl	%eax, 4(%esp)
.LVL9:
.LBE22:
.LBE21:
	.loc 1 120 0
	movsbl	(%ebx), %eax
	movl	%eax, (%esp)
.LBB24:
.LBB23:
	.loc 2 81 0
	call	_IO_putc
.LVL10:
	subl	$1, %ebx
.LVL11:
.LBE23:
.LBE24:
	.loc 1 118 0
	cmpl	%esi, %ebx
	jne	.L21
.LVL12:
.L1:
	.loc 1 123 0
	movl	28(%esp), %eax
	xorl	%gs:20, %eax
	je	.L22
	call	__stack_chk_fail
.LVL13:
.L22:
	addl	$36, %esp
	.cfi_def_cfa_offset 12
	popl	%ebx
	.cfi_restore 3
	.cfi_def_cfa_offset 8
	popl	%esi
	.cfi_restore 6
	.cfi_def_cfa_offset 4
	.p2align 4,,1
	ret
	.cfi_endproc
.LFE40:
	.size	printnum, .-printnum
	.section	.rodata.str1.1,"aMS",@progbits,1
.LC0:
	.string	"foo called with args"
.LC1:
	.string	"a: "
.LC2:
	.string	"b: "
.LC3:
	.string	"c :"
	.text
	.globl	recover
	.type	recover, @function
recover:
.LFB39:
	.loc 1 14 0
	.cfi_startproc
	pushl	%edi
	.cfi_def_cfa_offset 8
	.cfi_offset 7, -8
	pushl	%esi
	.cfi_def_cfa_offset 12
	.cfi_offset 6, -12
	pushl	%ebx
	.cfi_def_cfa_offset 16
	.cfi_offset 3, -16
	subl	$32, %esp
	.cfi_def_cfa_offset 48
	.loc 1 16 0
	leal	112(%esp), %eax
	movl	%eax, 28(%esp)
	.loc 1 17 0
	movl	124(%esp), %edi
.LVL14:
	.loc 1 19 0
	movl	%edi, %ebx
	sall	$6, %ebx
	addl	%eax, %ebx
.LVL15:
	.loc 1 21 0
	addl	$1, %edi
.LVL16:
	testl	%edi, %edi
	jle	.L24
	.loc 1 20 0
	movl	$0, %esi
.LVL17:
.L26:
.LBB25:
.LBB26:
	.file 3 "/usr/include/bits/stdio2.h"
	.loc 3 104 0
	movl	$.LC0, (%esp)
	call	puts
.LVL18:
.LBE26:
.LBE25:
.LBB27:
.LBB28:
	movl	$.LC1, 4(%esp)
	movl	$1, (%esp)
	call	__printf_chk
.LVL19:
.LBE28:
.LBE27:
	.loc 1 25 0
	movl	(%ebx), %eax
	movl	%eax, (%esp)
	call	printnum
.LVL20:
.LBB29:
.LBB30:
	.loc 2 81 0
	movl	stdout, %eax
	movl	%eax, 4(%esp)
	movl	$10, (%esp)
	call	_IO_putc
.LVL21:
.LBE30:
.LBE29:
.LBB31:
.LBB32:
	.loc 3 104 0
	movl	$.LC2, 4(%esp)
	movl	$1, (%esp)
	call	__printf_chk
.LVL22:
.LBE32:
.LBE31:
	.loc 1 28 0
	movl	4(%ebx), %eax
	movl	%eax, (%esp)
	call	printnum
.LVL23:
.LBB33:
.LBB34:
	.loc 2 81 0
	movl	stdout, %eax
	movl	%eax, 4(%esp)
	movl	$10, (%esp)
	call	_IO_putc
.LVL24:
.LBE34:
.LBE33:
.LBB35:
.LBB36:
	.loc 3 104 0
	movl	$.LC3, 4(%esp)
	movl	$1, (%esp)
	call	__printf_chk
.LVL25:
.LBE36:
.LBE35:
	.loc 1 31 0
	movl	8(%ebx), %eax
	movl	%eax, (%esp)
	call	printnum
.LVL26:
.LBB37:
.LBB38:
	.loc 2 81 0
	movl	stdout, %eax
	movl	%eax, 4(%esp)
	movl	$10, (%esp)
	call	_IO_putc
.LVL27:
.LBE38:
.LBE37:
	.loc 1 33 0
	subl	$64, %ebx
.LVL28:
	.loc 1 21 0
	addl	$1, %esi
.LVL29:
	cmpl	%edi, %esi
	jne	.L26
.LVL30:
.L24:
	.loc 1 35 0
	addl	$32, %esp
	.cfi_def_cfa_offset 16
	popl	%ebx
	.cfi_restore 3
	.cfi_def_cfa_offset 12
.LVL31:
	popl	%esi
	.cfi_restore 6
	.cfi_def_cfa_offset 8
	popl	%edi
	.cfi_restore 7
	.cfi_def_cfa_offset 4
.LVL32:
	ret
	.cfi_endproc
.LFE39:
	.size	recover, .-recover
.Letext0:
	.file 4 "/usr/lib/gcc/x86_64-linux-gnu/4.8/include/stddef.h"
	.file 5 "/usr/include/bits/types.h"
	.file 6 "/usr/include/libio.h"
	.file 7 "/usr/include/stdio.h"
	.file 8 "<built-in>"
	.section	.note.GNU-stack,"",@progbits
